; Function Attrs: mustprogress uwtable
define internal void @_ZN12_GLOBAL__N_118Mutex_Logging_Test8TestBodyEv(ptr nocapture nonnull readnone align 8 %this) unnamed_addr #3 align 2 personality ptr @__gxx_personality_v0 {
entry:
  %agg.tmp.i = alloca %"class.absl::synchronization_internal::KernelTimeout", align 8
  %logged_mutex = alloca %"class.absl::Mutex", align 8
  %logged_cv = alloca %"class.absl::CondVar", align 8
  store i64 0, ptr %logged_mutex, align 8
  call void @_ZN4absl5Mutex14EnableDebugLogEPKc(ptr noundef nonnull align 8 dereferenceable(8) %logged_mutex, ptr noundef nonnull @.str.157)
  store i64 0, ptr %logged_cv, align 8
  call void @_ZN4absl7CondVar14EnableDebugLogEPKc(ptr noundef nonnull align 8 dereferenceable(8) %logged_cv, ptr noundef nonnull @.str.158)
  call void @_ZN4absl5Mutex4LockEv(ptr noundef nonnull align 8 dereferenceable(8) %logged_mutex)
  call void @llvm.lifetime.start.p0(i64 8, ptr nonnull %agg.tmp.i)
  call void @_ZN4absl24synchronization_internal13KernelTimeoutC1ENS_8DurationE(ptr noundef nonnull align 8 dereferenceable(8) %agg.tmp.i, i64 0, i32 80000000)
  %0 = load i64, ptr %agg.tmp.i, align 8
  %call.i = call noundef zeroext i1 @_ZN4absl7CondVar10WaitCommonEPNS_5MutexENS_24synchronization_internal13KernelTimeoutE(ptr noundef nonnull align 8 dereferenceable(8) %logged_cv, ptr noundef nonnull %logged_mutex, i64 %0)
  call void @llvm.lifetime.end.p0(i64 8, ptr nonnull %agg.tmp.i)
  call void @_ZN4absl5Mutex6UnlockEv(ptr noundef nonnull align 8 dereferenceable(8) %logged_mutex)
  call void @_ZN4absl5Mutex10ReaderLockEv(ptr noundef nonnull align 8 dereferenceable(8) %logged_mutex)
  call void @_ZN4absl5Mutex12ReaderUnlockEv(ptr noundef nonnull align 8 dereferenceable(8) %logged_mutex)
  call void @_ZN4absl5Mutex4LockEv(ptr noundef nonnull align 8 dereferenceable(8) %logged_mutex)
  call void @_ZN4absl5Mutex6UnlockEv(ptr noundef nonnull align 8 dereferenceable(8) %logged_mutex)
  call void @_ZN4absl7CondVar6SignalEv(ptr noundef nonnull align 8 dereferenceable(8) %logged_cv)
  call void @_ZN4absl7CondVar9SignalAllEv(ptr noundef nonnull align 8 dereferenceable(8) %logged_cv)
  ret void
}